; Function Attrs: mustprogress nofree norecurse nosync nounwind willreturn memory(write, argmem: readwrite, inaccessiblemem: none) uwtable
define hidden void @_ZN3sat12local_search8set_biasEj5lbool(ptr noundef nonnull readonly align 8 captures(none) dereferenceable(232) %0, i32 noundef %1, i32 noundef %2) local_unnamed_addr #15 align 2 {
  switch i32 %2, label %9 [
    i32 1, label %.sink.split
    i32 -1, label %4
  ]

4:                                                ; preds = %3
  br label %.sink.split

.sink.split:                                      ; preds = %3, %4
  %.sink = phi i32 [ 1, %4 ], [ 99, %3 ]
  %5 = getelementptr inbounds nuw i8, ptr %0, i64 40
  %6 = load ptr, ptr %5, align 8, !tbaa !49
  %7 = zext i32 %1 to i64
  %8 = getelementptr inbounds nuw %"struct.sat::local_search::var_info", ptr %6, i64 %7, i32 1
  store i32 %.sink, ptr %8, align 4, !tbaa !56
  br label %9

9:                                                ; preds = %.sink.split, %3
  ret void
}